target datalayout = "e-m:e-p270:32:32-p271:32:32-p272:64:64-i64:64-i128:128-f80:128-n8:16:32:64-S128"
target triple = "x86_64-pc-linux-gnu"

%struct.blake2s_state = type <{ [240 x i8], ptr, ptr, ptr, ptr, i64, i8, [7 x i8] }>

; Function Attrs: inlinehint mustprogress nounwind uwtable
define internal void @_ZL20blake2s_set_lastnodeP13blake2s_state(ptr noundef %0) #5 {
  %2 = alloca ptr, align 8
  store ptr %0, ptr %2, align 8, !tbaa !20
  %3 = load ptr, ptr %2, align 8, !tbaa !20
  %4 = getelementptr inbounds nuw %struct.blake2s_state, ptr %3, i32 0, i32 4
  %5 = load ptr, ptr %4, align 8, !tbaa !45
  %6 = getelementptr inbounds i32, ptr %5, i64 1
  store i32 -1, ptr %6, align 4, !tbaa !14
  ret void
}

; Function Attrs: inlinehint mustprogress nounwind uwtable
define linkonce_odr void @_Z7RawPut4jPv(i32 noundef %0, ptr noundef %1) #5 comdat {
  %3 = alloca i32, align 4
  %4 = alloca ptr, align 8
  store i32 %0, ptr %3, align 4, !tbaa !14
  store ptr %1, ptr %4, align 8, !tbaa !49
  %5 = load i32, ptr %3, align 4, !tbaa !14
  %6 = load ptr, ptr %4, align 8, !tbaa !49
  store i32 %5, ptr %6, align 4, !tbaa !14
  ret void
}

; Function Attrs: inlinehint mustprogress uwtable
define internal void @_ZL21blake2s_set_lastblockP13blake2s_state(ptr noundef %0) #6 {
  %2 = alloca ptr, align 8
  store ptr %0, ptr %2, align 8, !tbaa !20
  %3 = load ptr, ptr %2, align 8, !tbaa !20
  %4 = getelementptr inbounds nuw %struct.blake2s_state, ptr %3, i32 0, i32 6
  %5 = load i8, ptr %4, align 8, !tbaa !19
  %6 = icmp ne i8 %5, 0
  br i1 %6, label %7, label %9

7:                                                ; preds = %1
  %8 = load ptr, ptr %2, align 8, !tbaa !20
  call void @_ZL20blake2s_set_lastnodeP13blake2s_state(ptr noundef %8)
  br label %9

9:                                                ; preds = %7, %1
  %10 = load ptr, ptr %2, align 8, !tbaa !20
  %11 = getelementptr inbounds nuw %struct.blake2s_state, ptr %10, i32 0, i32 4
  %12 = load ptr, ptr %11, align 8, !tbaa !45
  %13 = getelementptr inbounds i32, ptr %12, i64 0
  store i32 -1, ptr %13, align 4, !tbaa !14
  ret void
}

; Function Attrs: inlinehint mustprogress nounwind uwtable
define internal void @_ZL25blake2s_increment_counterP13blake2s_statej(ptr noundef %0, i32 noundef %1) #5 {
  %3 = alloca ptr, align 8
  %4 = alloca i32, align 4
  store ptr %0, ptr %3, align 8, !tbaa !20
  store i32 %1, ptr %4, align 4, !tbaa !14
  %5 = load i32, ptr %4, align 4, !tbaa !14
  %6 = load ptr, ptr %3, align 8, !tbaa !20
  %7 = getelementptr inbounds nuw %struct.blake2s_state, ptr %6, i32 0, i32 3
  %8 = load ptr, ptr %7, align 8, !tbaa !42
  %9 = getelementptr inbounds i32, ptr %8, i64 0
  %10 = load i32, ptr %9, align 4, !tbaa !14
  %11 = add i32 %10, %5
  store i32 %11, ptr %9, align 4, !tbaa !14
  %12 = load ptr, ptr %3, align 8, !tbaa !20
  %13 = getelementptr inbounds nuw %struct.blake2s_state, ptr %12, i32 0, i32 3
  %14 = load ptr, ptr %13, align 8, !tbaa !42
  %15 = getelementptr inbounds i32, ptr %14, i64 0
  %16 = load i32, ptr %15, align 4, !tbaa !14
  %17 = load i32, ptr %4, align 4, !tbaa !14
  %18 = icmp ult i32 %16, %17
  %19 = zext i1 %18 to i32
  %20 = load ptr, ptr %3, align 8, !tbaa !20
  %21 = getelementptr inbounds nuw %struct.blake2s_state, ptr %20, i32 0, i32 3
  %22 = load ptr, ptr %21, align 8, !tbaa !42
  %23 = getelementptr inbounds i32, ptr %22, i64 1
  %24 = load i32, ptr %23, align 4, !tbaa !14
  %25 = add i32 %24, %19
  store i32 %25, ptr %23, align 4, !tbaa !14
  ret void
}

; Function Attrs: mustprogress uwtable
define internal void @_ZL13blake2s_finalP13blake2s_statePh(ptr noundef %0, ptr noundef %1) #0 {
  %3 = alloca ptr, align 8
  %4 = alloca ptr, align 8
  %5 = alloca i32, align 4
  store ptr %0, ptr %3, align 8, !tbaa !20
  store ptr %1, ptr %4, align 8, !tbaa !30
  %6 = load ptr, ptr %3, align 8, !tbaa !20
  %7 = getelementptr inbounds nuw %struct.blake2s_state, ptr %6, i32 0, i32 5
  %8 = load i64, ptr %7, align 8, !tbaa !33
  %9 = icmp ugt i64 %8, 64
  br i1 %9, label %10, label %30

10:                                               ; preds = %2
  %11 = load ptr, ptr %3, align 8, !tbaa !20
  call void @_ZL25blake2s_increment_counterP13blake2s_statej(ptr noundef %11, i32 noundef 64)
  %12 = load ptr, ptr %3, align 8, !tbaa !20
  %13 = load ptr, ptr %3, align 8, !tbaa !20
  %14 = getelementptr inbounds nuw %struct.blake2s_state, ptr %13, i32 0, i32 1
  %15 = load ptr, ptr %14, align 8, !tbaa !34
  call void @_ZL16blake2s_compressP13blake2s_statePKh(ptr noundef %12, ptr noundef %15)
  %16 = load ptr, ptr %3, align 8, !tbaa !20
  %17 = getelementptr inbounds nuw %struct.blake2s_state, ptr %16, i32 0, i32 5
  %18 = load i64, ptr %17, align 8, !tbaa !33
  %19 = sub i64 %18, 64
  store i64 %19, ptr %17, align 8, !tbaa !33
  %20 = load ptr, ptr %3, align 8, !tbaa !20
  %21 = getelementptr inbounds nuw %struct.blake2s_state, ptr %20, i32 0, i32 1
  %22 = load ptr, ptr %21, align 8, !tbaa !34
  %23 = load ptr, ptr %3, align 8, !tbaa !20
  %24 = getelementptr inbounds nuw %struct.blake2s_state, ptr %23, i32 0, i32 1
  %25 = load ptr, ptr %24, align 8, !tbaa !34
  %26 = getelementptr inbounds i8, ptr %25, i64 64
  %27 = load ptr, ptr %3, align 8, !tbaa !20
  %28 = getelementptr inbounds nuw %struct.blake2s_state, ptr %27, i32 0, i32 5
  %29 = load i64, ptr %28, align 8, !tbaa !33
  call void @llvm.memcpy.p0.p0.i64(ptr align 1 %22, ptr align 1 %26, i64 %29, i1 false)
  br label %30

30:                                               ; preds = %10, %2
  %31 = load ptr, ptr %3, align 8, !tbaa !20
  %32 = load ptr, ptr %3, align 8, !tbaa !20
  %33 = getelementptr inbounds nuw %struct.blake2s_state, ptr %32, i32 0, i32 5
  %34 = load i64, ptr %33, align 8, !tbaa !33
  %35 = trunc i64 %34 to i32
  call void @_ZL25blake2s_increment_counterP13blake2s_statej(ptr noundef %31, i32 noundef %35)
  %36 = load ptr, ptr %3, align 8, !tbaa !20
  call void @_ZL21blake2s_set_lastblockP13blake2s_state(ptr noundef %36)
  %37 = load ptr, ptr %3, align 8, !tbaa !20
  %38 = getelementptr inbounds nuw %struct.blake2s_state, ptr %37, i32 0, i32 1
  %39 = load ptr, ptr %38, align 8, !tbaa !34
  %40 = load ptr, ptr %3, align 8, !tbaa !20
  %41 = getelementptr inbounds nuw %struct.blake2s_state, ptr %40, i32 0, i32 5
  %42 = load i64, ptr %41, align 8, !tbaa !33
  %43 = getelementptr inbounds nuw i8, ptr %39, i64 %42
  %44 = load ptr, ptr %3, align 8, !tbaa !20
  %45 = getelementptr inbounds nuw %struct.blake2s_state, ptr %44, i32 0, i32 5
  %46 = load i64, ptr %45, align 8, !tbaa !33
  %47 = sub i64 128, %46
  call void @llvm.memset.p0.i64(ptr align 1 %43, i8 0, i64 %47, i1 false)
  %48 = load ptr, ptr %3, align 8, !tbaa !20
  %49 = load ptr, ptr %3, align 8, !tbaa !20
  %50 = getelementptr inbounds nuw %struct.blake2s_state, ptr %49, i32 0, i32 1
  %51 = load ptr, ptr %50, align 8, !tbaa !34
  call void @_ZL16blake2s_compressP13blake2s_statePKh(ptr noundef %48, ptr noundef %51)
  call void @llvm.lifetime.start.p0(i64 4, ptr %5) #7
  store i32 0, ptr %5, align 4, !tbaa !14
  br label %52

52:                                               ; preds = %69, %30
  %53 = load i32, ptr %5, align 4, !tbaa !14
  %54 = icmp slt i32 %53, 8
  br i1 %54, label %56, label %55

55:                                               ; preds = %52
  call void @llvm.lifetime.end.p0(i64 4, ptr %5) #7
  br label %72

56:                                               ; preds = %52
  %57 = load ptr, ptr %3, align 8, !tbaa !20
  %58 = getelementptr inbounds nuw %struct.blake2s_state, ptr %57, i32 0, i32 2
  %59 = load ptr, ptr %58, align 8, !tbaa !22
  %60 = load i32, ptr %5, align 4, !tbaa !14
  %61 = sext i32 %60 to i64
  %62 = getelementptr inbounds i32, ptr %59, i64 %61
  %63 = load i32, ptr %62, align 4, !tbaa !14
  %64 = load ptr, ptr %4, align 8, !tbaa !30
  %65 = load i32, ptr %5, align 4, !tbaa !14
  %66 = mul nsw i32 4, %65
  %67 = sext i32 %66 to i64
  %68 = getelementptr inbounds i8, ptr %64, i64 %67
  call void @_Z7RawPut4jPv(i32 noundef %63, ptr noundef %68)
  br label %69

69:                                               ; preds = %56
  %70 = load i32, ptr %5, align 4, !tbaa !14
  %71 = add nsw i32 %70, 1
  store i32 %71, ptr %5, align 4, !tbaa !14
  br label %52, !llvm.loop !41

72:                                               ; preds = %55
  ret void
}