; Function Attrs: mustprogress nofree norecurse nosync nounwind memory(readwrite, inaccessiblemem: none) uwtable
define internal fastcc void @_ZL13blake2s_finalP13blake2s_statePh(ptr noundef captures(none) %0, ptr noundef writeonly captures(none) %1) unnamed_addr #0 {
  %3 = getelementptr inbounds nuw i8, ptr %0, i64 272
  %4 = load i64, ptr %3, align 8, !tbaa !3
  %5 = icmp ugt i64 %4, 64
  br i1 %5, label %6, label %21

6:                                                ; preds = %2
  %7 = getelementptr i8, ptr %0, i64 256
  %.val = load ptr, ptr %7, align 8, !tbaa !26
  %8 = load i32, ptr %.val, align 4, !tbaa !12
  %9 = add i32 %8, 64
  store i32 %9, ptr %.val, align 4, !tbaa !12
  %10 = icmp ugt i32 %8, -65
  %11 = zext i1 %10 to i32
  %12 = getelementptr inbounds nuw i8, ptr %.val, i64 4
  %13 = load i32, ptr %12, align 4, !tbaa !12
  %14 = add i32 %13, %11
  store i32 %14, ptr %12, align 4, !tbaa !12
  %15 = getelementptr inbounds nuw i8, ptr %0, i64 240
  %16 = load ptr, ptr %15, align 8, !tbaa !24
  tail call fastcc void @_ZL16blake2s_compressP13blake2s_statePKh(ptr noundef nonnull %0, ptr noundef %16)
  %17 = load i64, ptr %3, align 8, !tbaa !3
  %18 = add i64 %17, -64
  store i64 %18, ptr %3, align 8, !tbaa !3
  %19 = load ptr, ptr %15, align 8, !tbaa !24
  %20 = getelementptr inbounds nuw i8, ptr %19, i64 64
  tail call void @llvm.memcpy.p0.p0.i64(ptr align 1 %19, ptr nonnull align 1 %20, i64 %18, i1 false)
  %.pre = load i64, ptr %3, align 8, !tbaa !3
  br label %21

21:                                               ; preds = %6, %2
  %22 = phi i64 [ %.pre, %6 ], [ %4, %2 ]
  %23 = trunc i64 %22 to i32
  %24 = getelementptr i8, ptr %0, i64 256
  %.val21 = load ptr, ptr %24, align 8, !tbaa !26
  %25 = load i32, ptr %.val21, align 4, !tbaa !12
  %26 = add i32 %25, %23
  store i32 %26, ptr %.val21, align 4, !tbaa !12
  %27 = icmp ult i32 %26, %23
  %28 = zext i1 %27 to i32
  %29 = getelementptr inbounds nuw i8, ptr %.val21, i64 4
  %30 = load i32, ptr %29, align 4, !tbaa !12
  %31 = add i32 %30, %28
  store i32 %31, ptr %29, align 4, !tbaa !12
  %32 = getelementptr inbounds nuw i8, ptr %0, i64 280
  %33 = load i8, ptr %32, align 8, !tbaa !16
  %.not.i = icmp eq i8 %33, 0
  %.phi.trans.insert.i = getelementptr i8, ptr %0, i64 264
  %.pre.i = load ptr, ptr %.phi.trans.insert.i, align 8, !tbaa !32
  br i1 %.not.i, label %_ZL21blake2s_set_lastblockP13blake2s_state.exit, label %34

34:                                               ; preds = %21
  %35 = getelementptr inbounds nuw i8, ptr %.pre.i, i64 4
  store i32 -1, ptr %35, align 4, !tbaa !12
  br label %_ZL21blake2s_set_lastblockP13blake2s_state.exit

_ZL21blake2s_set_lastblockP13blake2s_state.exit:  ; preds = %21, %34
  store i32 -1, ptr %.pre.i, align 4, !tbaa !12
  %36 = getelementptr inbounds nuw i8, ptr %0, i64 240
  %37 = load ptr, ptr %36, align 8, !tbaa !24
  %38 = getelementptr inbounds nuw i8, ptr %37, i64 %22
  %39 = sub i64 128, %22
  tail call void @llvm.memset.p0.i64(ptr align 1 %38, i8 0, i64 %39, i1 false)
  %40 = load ptr, ptr %36, align 8, !tbaa !24
  tail call fastcc void @_ZL16blake2s_compressP13blake2s_statePKh(ptr noundef nonnull %0, ptr noundef %40)
  %41 = getelementptr inbounds nuw i8, ptr %0, i64 248
  %42 = load ptr, ptr %41, align 8, !tbaa !11
  br label %44

43:                                               ; preds = %44
  ret void

44:                                               ; preds = %_ZL21blake2s_set_lastblockP13blake2s_state.exit, %44
  %indvars.iv = phi i64 [ 0, %_ZL21blake2s_set_lastblockP13blake2s_state.exit ], [ %indvars.iv.next, %44 ]
  %45 = getelementptr inbounds nuw i32, ptr %42, i64 %indvars.iv
  %46 = load i32, ptr %45, align 4, !tbaa !12
  %47 = shl nuw nsw i64 %indvars.iv, 2
  %48 = getelementptr inbounds nuw i8, ptr %1, i64 %47
  store i32 %46, ptr %48, align 4, !tbaa !12
  %indvars.iv.next = add nuw nsw i64 %indvars.iv, 1
  %exitcond.not = icmp eq i64 %indvars.iv.next, 8
  br i1 %exitcond.not, label %43, label %44, !llvm.loop !33
}